target datalayout = "e-m:e-p270:32:32-p271:32:32-p272:64:64-i64:64-i128:128-f80:128-n8:16:32:64-S128"
target triple = "x86_64-pc-linux-gnu"

%class.anon.4 = type { i8 }

@.str.4 = private unnamed_addr constant [4 x i8] c"nnf\00", align 1
@.str.77 = private unnamed_addr constant [11 x i8] c"max_memory\00", align 1
@.str.78 = private unnamed_addr constant [38 x i8] c"maximum amount of memory in megabytes\00", align 1
@.str.79 = private unnamed_addr constant [11 x i8] c"4294967295\00", align 1
@.str.80 = private unnamed_addr constant [8 x i8] c"sk_hack\00", align 1
@.str.81 = private unnamed_addr constant [13 x i8] c"hack for VCC\00", align 1
@.str.82 = private unnamed_addr constant [6 x i8] c"false\00", align 1
@.str.83 = private unnamed_addr constant [5 x i8] c"mode\00", align 1
@.str.84 = private unnamed_addr constant [111 x i8] c"NNF translation mode: skolem (skolem normal form), quantifiers (skolem normal form + quantifiers in NNF), full\00", align 1
@.str.85 = private unnamed_addr constant [7 x i8] c"skolem\00", align 1
@.str.86 = private unnamed_addr constant [14 x i8] c"ignore_labels\00", align 1
@.str.87 = private unnamed_addr constant [88 x i8] c"remove/ignore labels in the input formula, this option is ignored if proofs are enabled\00", align 1

; Function Attrs: mustprogress uwtable
define linkonce_odr hidden void @_ZN10nnf_params20collect_param_descrsER12param_descrs(ptr noundef nonnull align 8 dereferenceable(8) %0) #4 comdat align 2 {
  %2 = alloca ptr, align 8
  store ptr %0, ptr %2, align 8, !tbaa !7
  %3 = load ptr, ptr %2, align 8, !tbaa !7
  call void @_ZN12param_descrs6insertEPKc12cmd_arg_kindS1_S1_S1_(ptr noundef nonnull align 8 dereferenceable(8) %3, ptr noundef @.str.77, i32 noundef 0, ptr noundef @.str.78, ptr noundef @.str.79, ptr noundef @.str.4)
  %4 = load ptr, ptr %2, align 8, !tbaa !7
  call void @_ZN12param_descrs6insertEPKc12cmd_arg_kindS1_S1_S1_(ptr noundef nonnull align 8 dereferenceable(8) %4, ptr noundef @.str.80, i32 noundef 1, ptr noundef @.str.81, ptr noundef @.str.82, ptr noundef @.str.4)
  %5 = load ptr, ptr %2, align 8, !tbaa !7
  call void @_ZN12param_descrs6insertEPKc12cmd_arg_kindS1_S1_S1_(ptr noundef nonnull align 8 dereferenceable(8) %5, ptr noundef @.str.83, i32 noundef 8, ptr noundef @.str.84, ptr noundef @.str.85, ptr noundef @.str.4)
  %6 = load ptr, ptr %2, align 8, !tbaa !7
  call void @_ZN12param_descrs6insertEPKc12cmd_arg_kindS1_S1_S1_(ptr noundef nonnull align 8 dereferenceable(8) %6, ptr noundef @.str.86, i32 noundef 1, ptr noundef @.str.87, ptr noundef @.str.82, ptr noundef @.str.4)
  ret void
}

; Function Attrs: inlinehint mustprogress uwtable
define internal noundef ptr @"_ZZ24gparams_register_modulesvENK3$_3clEv"(ptr noundef nonnull align 1 dereferenceable(1) %0) #8 align 2 {
  %2 = alloca ptr, align 8
  %3 = alloca ptr, align 8
  store ptr %0, ptr %2, align 8, !tbaa !3
  call void @llvm.lifetime.start.p0(i64 8, ptr %3) #3
  %4 = call noalias noundef ptr @_ZN6memory8allocateEm(i64 noundef 8)
  call void @_ZN12param_descrsC1Ev(ptr noundef nonnull align 8 dereferenceable(8) %4)
  store ptr %4, ptr %3, align 8, !tbaa !7
  %5 = load ptr, ptr %3, align 8, !tbaa !7
  call void @_ZN10nnf_params20collect_param_descrsER12param_descrs(ptr noundef nonnull align 8 dereferenceable(8) %5)
  %6 = load ptr, ptr %3, align 8, !tbaa !7
  call void @llvm.lifetime.end.p0(i64 8, ptr %3) #3
  ret ptr %6
}

; Function Attrs: inlinehint mustprogress uwtable
define internal noundef ptr @"_ZZ24gparams_register_modulesvEN3$_38__invokeEv"() #8 align 2 {
  %1 = alloca %class.anon.4, align 1
  %2 = call noundef ptr @"_ZZ24gparams_register_modulesvENK3$_3clEv"(ptr noundef nonnull align 1 dereferenceable(1) %1)
  ret ptr %2
}