; Function Attrs: inlinehint mustprogress uwtable
define internal noundef ptr @"_ZZ24gparams_register_modulesvEN3$_38__invokeEv"() #5 align 2 {
  %1 = tail call noalias noundef ptr @_ZN6memory8allocateEm(i64 noundef 8)
  tail call void @_ZN12param_descrsC1Ev(ptr noundef nonnull align 8 dereferenceable(8) %1)
  tail call void @_ZN12param_descrs6insertEPKc12cmd_arg_kindS1_S1_S1_(ptr noundef nonnull align 8 dereferenceable(8) %1, ptr noundef nonnull @.str.77, i32 noundef 0, ptr noundef nonnull @.str.78, ptr noundef nonnull @.str.79, ptr noundef nonnull @.str.4)
  tail call void @_ZN12param_descrs6insertEPKc12cmd_arg_kindS1_S1_S1_(ptr noundef nonnull align 8 dereferenceable(8) %1, ptr noundef nonnull @.str.80, i32 noundef 1, ptr noundef nonnull @.str.81, ptr noundef nonnull @.str.82, ptr noundef nonnull @.str.4)
  tail call void @_ZN12param_descrs6insertEPKc12cmd_arg_kindS1_S1_S1_(ptr noundef nonnull align 8 dereferenceable(8) %1, ptr noundef nonnull @.str.83, i32 noundef 8, ptr noundef nonnull @.str.84, ptr noundef nonnull @.str.85, ptr noundef nonnull @.str.4)
  tail call void @_ZN12param_descrs6insertEPKc12cmd_arg_kindS1_S1_S1_(ptr noundef nonnull align 8 dereferenceable(8) %1, ptr noundef nonnull @.str.86, i32 noundef 1, ptr noundef nonnull @.str.87, ptr noundef nonnull @.str.82, ptr noundef nonnull @.str.4)
  ret ptr %1
}